target datalayout = "e-m:e-p270:32:32-p271:32:32-p272:64:64-i64:64-i128:128-f80:128-n8:16:32:64-S128"
target triple = "x86_64-pc-linux-gnu"

%"class.gmx::FreeEnergyPerturbationData::Element" = type <{ %"class.gmx::ISimulatorElement", %"class.gmx::ICheckpointHelperClient", %"class.gmx::IDomDecHelperClient", ptr, i8, [7 x i8], %"class.std::optional.17", i32, i8, [3 x i8] }>
%"class.gmx::ISimulatorElement" = type { ptr }
%"class.gmx::ICheckpointHelperClient" = type { ptr }
%"class.gmx::IDomDecHelperClient" = type { ptr }
%"class.std::optional.17" = type { %"struct.std::_Optional_base.18" }
%"struct.std::_Optional_base.18" = type { %"struct.std::_Optional_payload.20" }
%"struct.std::_Optional_payload.20" = type { %"struct.std::_Optional_payload_base.base.22", [7 x i8] }
%"struct.std::_Optional_payload_base.base.22" = type <{ %"union.std::_Optional_payload_base<gmx::FepStateSetting>::_Storage", i8 }>
%"union.std::_Optional_payload_base<gmx::FepStateSetting>::_Storage" = type { %"class.gmx::FepStateSetting" }
%"class.gmx::FepStateSetting" = type { i64, i32, i64 }
%"class.std::optional" = type { %"struct.std::_Optional_base" }
%"struct.std::_Optional_base" = type { %"struct.std::_Optional_payload" }
%"struct.std::_Optional_payload" = type { %"struct.std::_Optional_payload_base.base.5", [7 x i8] }
%"struct.std::_Optional_payload_base.base.5" = type { %"union.std::_Optional_payload_base<gmx::CheckpointData<CheckpointDataOperation::Write>>::_Storage", i8 }
%"union.std::_Optional_payload_base<gmx::CheckpointData<CheckpointDataOperation::Write>>::_Storage" = type { %"class.gmx::CheckpointData" }
%"class.gmx::CheckpointData" = type { %"class.std::optional.0" }
%"class.std::optional.0" = type { %"struct.std::_Optional_base.1" }
%"struct.std::_Optional_base.1" = type { %"struct.std::_Optional_payload.3" }
%"struct.std::_Optional_payload.3" = type { %"struct.std::_Optional_payload_base.base", [7 x i8] }
%"struct.std::_Optional_payload_base.base" = type <{ %"union.std::_Optional_payload_base<gmx::KeyValueTreeObjectBuilder>::_Storage", i8 }>
%"union.std::_Optional_payload_base<gmx::KeyValueTreeObjectBuilder>::_Storage" = type { %"class.gmx::KeyValueTreeObjectBuilder" }
%"class.gmx::KeyValueTreeObjectBuilder" = type { ptr }
%struct.t_commrec = type <{ i8, [3 x i8], i32, i32, i32, i32, [4 x i8], ptr, ptr, i32, [4 x i8], ptr, i32, i32, %struct.gmx_nodecomm_t, %"class.std::unique_ptr.116", %"class.std::unique_ptr.124", ptr, ptr, i32, [4 x i8] }>
%struct.gmx_nodecomm_t = type { i8, ptr, i32, ptr }
%"class.std::unique_ptr.116" = type { %"struct.std::__uniq_ptr_data.117" }
%"struct.std::__uniq_ptr_data.117" = type { %"class.std::__uniq_ptr_impl.118" }
%"class.std::__uniq_ptr_impl.118" = type { %"class.std::tuple.119" }
%"class.std::tuple.119" = type { %"struct.std::_Tuple_impl.120" }
%"struct.std::_Tuple_impl.120" = type { %"struct.std::_Head_base.123" }
%"struct.std::_Head_base.123" = type { ptr }
%"class.std::unique_ptr.124" = type { %"struct.std::__uniq_ptr_data.125" }
%"struct.std::__uniq_ptr_data.125" = type { %"class.std::__uniq_ptr_impl.126" }
%"class.std::__uniq_ptr_impl.126" = type { %"class.std::tuple.127" }
%"class.std::tuple.127" = type { %"struct.std::_Tuple_impl.128" }
%"struct.std::_Tuple_impl.128" = type { %"struct.std::_Head_base.131" }
%"struct.std::_Head_base.131" = type { ptr }
%"struct.std::_Optional_payload_base" = type { %"union.std::_Optional_payload_base<gmx::CheckpointData<CheckpointDataOperation::Write>>::_Storage", i8, [7 x i8] }

; Function Attrs: mustprogress nounwind uwtable
define linkonce_odr noundef nonnull align 8 dereferenceable(16) ptr @_ZNSt22_Optional_payload_baseIN3gmx14CheckpointDataILNS0_23CheckpointDataOperationE1EEEE6_M_getEv(ptr noundef nonnull align 8 dereferenceable(17) %0) #1 comdat align 2 {
  %2 = alloca ptr, align 8
  store ptr %0, ptr %2, align 8, !tbaa !576
  %3 = load ptr, ptr %2, align 8
  %4 = getelementptr inbounds nuw %"struct.std::_Optional_payload_base", ptr %3, i32 0, i32 0
  ret ptr %4
}

; Function Attrs: mustprogress nounwind uwtable
define linkonce_odr noundef nonnull align 8 dereferenceable(16) ptr @_ZNSt19_Optional_base_implIN3gmx14CheckpointDataILNS0_23CheckpointDataOperationE1EEESt14_Optional_baseIS3_Lb1ELb1EEE6_M_getEv(ptr noundef nonnull align 1 dereferenceable(1) %0) #1 comdat align 2 {
  %2 = alloca ptr, align 8
  store ptr %0, ptr %2, align 8, !tbaa !572
  %3 = load ptr, ptr %2, align 8
  br label %4

4:                                                ; preds = %1
  br label %5

5:                                                ; preds = %4
  br label %6

6:                                                ; preds = %5
  %7 = getelementptr inbounds nuw %"struct.std::_Optional_base", ptr %3, i32 0, i32 0
  %8 = call noundef nonnull align 8 dereferenceable(16) ptr @_ZNSt22_Optional_payload_baseIN3gmx14CheckpointDataILNS0_23CheckpointDataOperationE1EEEE6_M_getEv(ptr noundef nonnull align 8 dereferenceable(17) %7) #22
  ret ptr %8
}

; Function Attrs: mustprogress nounwind uwtable
define linkonce_odr noundef zeroext i1 @_ZNKSt19_Optional_base_implIN3gmx14CheckpointDataILNS0_23CheckpointDataOperationE1EEESt14_Optional_baseIS3_Lb1ELb1EEE13_M_is_engagedEv(ptr noundef nonnull align 1 dereferenceable(1) %0) #1 comdat align 2 {
  %2 = alloca ptr, align 8
  store ptr %0, ptr %2, align 8, !tbaa !572
  %3 = load ptr, ptr %2, align 8
  %4 = getelementptr inbounds nuw %"struct.std::_Optional_base", ptr %3, i32 0, i32 0
  %5 = getelementptr inbounds nuw %"struct.std::_Optional_payload_base", ptr %4, i32 0, i32 1
  %6 = load i8, ptr %5, align 8, !tbaa !574, !range !31, !noundef !32
  %7 = trunc i8 %6 to i1
  ret i1 %7
}

; Function Attrs: mustprogress uwtable
define linkonce_odr noundef nonnull align 8 dereferenceable(16) ptr @_ZNRSt8optionalIN3gmx14CheckpointDataILNS0_23CheckpointDataOperationE1EEEE5valueEv(ptr noundef nonnull align 8 dereferenceable(24) %0) #0 comdat align 2 {
  %2 = alloca ptr, align 8
  store ptr %0, ptr %2, align 8, !tbaa !295
  %3 = load ptr, ptr %2, align 8
  %4 = call noundef zeroext i1 @_ZNKSt19_Optional_base_implIN3gmx14CheckpointDataILNS0_23CheckpointDataOperationE1EEESt14_Optional_baseIS3_Lb1ELb1EEE13_M_is_engagedEv(ptr noundef nonnull align 1 dereferenceable(1) %3) #22
  br i1 %4, label %5, label %7

5:                                                ; preds = %1
  %6 = call noundef nonnull align 8 dereferenceable(16) ptr @_ZNSt19_Optional_base_implIN3gmx14CheckpointDataILNS0_23CheckpointDataOperationE1EEESt14_Optional_baseIS3_Lb1ELb1EEE6_M_getEv(ptr noundef nonnull align 1 dereferenceable(1) %3) #22
  ret ptr %6

7:                                                ; preds = %1
  call void @_ZSt27__throw_bad_optional_accessv() #26
  unreachable
}

; Function Attrs: mustprogress uwtable
define void @_ZN3gmx26FreeEnergyPerturbationData7Element19saveCheckpointStateESt8optionalINS_14CheckpointDataILNS_23CheckpointDataOperationE1EEEEPK9t_commrec(ptr noundef nonnull align 8 dereferenceable(80) %0, ptr noundef byval(%"class.std::optional") align 8 %1, ptr noundef %2) unnamed_addr #0 align 2 {
  %4 = alloca ptr, align 8
  %5 = alloca ptr, align 8
  store ptr %0, ptr %4, align 8, !tbaa !4
  store ptr %2, ptr %5, align 8, !tbaa !41
  %6 = load ptr, ptr %4, align 8
  %7 = load ptr, ptr %5, align 8, !tbaa !41
  %8 = getelementptr inbounds nuw %struct.t_commrec, ptr %7, i32 0, i32 13
  %9 = load i32, ptr %8, align 4, !tbaa !43
  %10 = icmp eq i32 %9, 0
  br i1 %10, label %16, label %11

11:                                               ; preds = %3
  %12 = load ptr, ptr %5, align 8, !tbaa !41
  %13 = getelementptr inbounds nuw %struct.t_commrec, ptr %12, i32 0, i32 12
  %14 = load i32, ptr %13, align 8, !tbaa !61
  %15 = icmp sgt i32 %14, 1
  br i1 %15, label %21, label %16

16:                                               ; preds = %11, %3
  %17 = getelementptr inbounds nuw %"class.gmx::FreeEnergyPerturbationData::Element", ptr %6, i32 0, i32 3
  %18 = load ptr, ptr %17, align 8, !tbaa !40
  %19 = call noundef nonnull align 8 dereferenceable(16) ptr @_ZNRSt8optionalIN3gmx14CheckpointDataILNS0_23CheckpointDataOperationE1EEEE5valueEv(ptr noundef nonnull align 8 dereferenceable(24) %1)
  call void @_ZN3gmx26FreeEnergyPerturbationData16doCheckpointDataILNS_23CheckpointDataOperationE1EEEvPNS_14CheckpointDataIXT_EEE(ptr noundef nonnull align 8 dereferenceable(64) %18, ptr noundef %19)
  %20 = call noundef nonnull align 8 dereferenceable(16) ptr @_ZNRSt8optionalIN3gmx14CheckpointDataILNS0_23CheckpointDataOperationE1EEEE5valueEv(ptr noundef nonnull align 8 dereferenceable(24) %1)
  call void @_ZN3gmx26FreeEnergyPerturbationData7Element16doCheckpointDataILNS_23CheckpointDataOperationE1EEEvPNS_14CheckpointDataIXT_EEE(ptr noundef nonnull align 8 dereferenceable(80) %6, ptr noundef %20)
  br label %21

21:                                               ; preds = %16, %11
  ret void
}

; Function Attrs: uwtable
define void @_ZThn8_N3gmx26FreeEnergyPerturbationData7Element19saveCheckpointStateESt8optionalINS_14CheckpointDataILNS_23CheckpointDataOperationE1EEEEPK9t_commrec(ptr noundef %0, ptr noundef byval(%"class.std::optional") align 8 %1, ptr noundef %2) unnamed_addr #4 align 2 {
  %4 = alloca ptr, align 8
  %5 = alloca ptr, align 8
  store ptr %0, ptr %4, align 8, !tbaa !4
  store ptr %2, ptr %5, align 8, !tbaa !41
  %6 = load ptr, ptr %4, align 8
  %7 = getelementptr inbounds i8, ptr %6, i64 -8
  %8 = load ptr, ptr %5, align 8, !tbaa !41
  tail call void @_ZN3gmx26FreeEnergyPerturbationData7Element19saveCheckpointStateESt8optionalINS_14CheckpointDataILNS_23CheckpointDataOperationE1EEEEPK9t_commrec(ptr noundef nonnull align 8 dereferenceable(80) %7, ptr noundef byval(%"class.std::optional") align 8 %1, ptr noundef %8)
  ret void
}