; Function Attrs: uwtable
define void @_ZThn8_N3gmx26FreeEnergyPerturbationData7Element19saveCheckpointStateESt8optionalINS_14CheckpointDataILNS_23CheckpointDataOperationE1EEEEPK9t_commrec(ptr noundef %0, ptr noundef readonly byval(%"class.std::optional") align 8 captures(none) %1, ptr noundef readonly captures(none) %2) unnamed_addr #5 align 2 {
  %4 = alloca %"class.std::optional", align 8
  %5 = getelementptr inbounds i8, ptr %0, i64 -8
  call void @llvm.lifetime.start.p0(i64 24, ptr nonnull %4)
  call void @llvm.memcpy.p0.p0.i64(ptr noundef nonnull align 8 dereferenceable(24) %4, ptr noundef nonnull align 8 dereferenceable(24) %1, i64 24, i1 false)
  %6 = getelementptr inbounds nuw i8, ptr %2, i64 60
  %7 = load i32, ptr %6, align 4, !tbaa !51
  %8 = icmp eq i32 %7, 0
  br i1 %8, label %13, label %9

9:                                                ; preds = %3
  %10 = getelementptr inbounds nuw i8, ptr %2, i64 56
  %11 = load i32, ptr %10, align 8, !tbaa !69
  %12 = icmp sgt i32 %11, 1
  br i1 %12, label %_ZN3gmx26FreeEnergyPerturbationData7Element19saveCheckpointStateESt8optionalINS_14CheckpointDataILNS_23CheckpointDataOperationE1EEEEPK9t_commrec.exit, label %13

13:                                               ; preds = %9, %3
  %14 = getelementptr inbounds nuw i8, ptr %4, i64 16
  %15 = load i8, ptr %14, align 8, !tbaa !70, !range !9, !noundef !10
  %16 = trunc nuw i8 %15 to i1
  br i1 %16, label %_ZNRSt8optionalIN3gmx14CheckpointDataILNS0_23CheckpointDataOperationE1EEEE5valueEv.exit.i, label %17

17:                                               ; preds = %13
  tail call void @_ZSt27__throw_bad_optional_accessv() #29
  unreachable

_ZNRSt8optionalIN3gmx14CheckpointDataILNS0_23CheckpointDataOperationE1EEEE5valueEv.exit.i: ; preds = %13
  %18 = getelementptr inbounds nuw i8, ptr %0, i64 16
  %19 = load ptr, ptr %18, align 8, !tbaa !34
  call void @_ZN3gmx26FreeEnergyPerturbationData16doCheckpointDataILNS_23CheckpointDataOperationE1EEEvPNS_14CheckpointDataIXT_EEE(ptr noundef nonnull align 8 dereferenceable(64) %19, ptr noundef nonnull align 8 %4)
  %20 = load i8, ptr %14, align 8, !tbaa !70, !range !9, !noundef !10
  %21 = trunc nuw i8 %20 to i1
  br i1 %21, label %_ZNRSt8optionalIN3gmx14CheckpointDataILNS0_23CheckpointDataOperationE1EEEE5valueEv.exit3.i, label %22

22:                                               ; preds = %_ZNRSt8optionalIN3gmx14CheckpointDataILNS0_23CheckpointDataOperationE1EEEE5valueEv.exit.i
  call void @_ZSt27__throw_bad_optional_accessv() #29
  unreachable

_ZNRSt8optionalIN3gmx14CheckpointDataILNS0_23CheckpointDataOperationE1EEEE5valueEv.exit3.i: ; preds = %_ZNRSt8optionalIN3gmx14CheckpointDataILNS0_23CheckpointDataOperationE1EEEE5valueEv.exit.i
  call void @_ZN3gmx26FreeEnergyPerturbationData7Element16doCheckpointDataILNS_23CheckpointDataOperationE1EEEvPNS_14CheckpointDataIXT_EEE(ptr noundef nonnull align 8 dereferenceable(80) %5, ptr noundef nonnull align 8 %4)
  br label %_ZN3gmx26FreeEnergyPerturbationData7Element19saveCheckpointStateESt8optionalINS_14CheckpointDataILNS_23CheckpointDataOperationE1EEEEPK9t_commrec.exit

_ZN3gmx26FreeEnergyPerturbationData7Element19saveCheckpointStateESt8optionalINS_14CheckpointDataILNS_23CheckpointDataOperationE1EEEEPK9t_commrec.exit: ; preds = %9, %_ZNRSt8optionalIN3gmx14CheckpointDataILNS0_23CheckpointDataOperationE1EEEE5valueEv.exit3.i
  call void @llvm.lifetime.end.p0(i64 24, ptr nonnull %4)
  ret void
}